target datalayout = "e-m:e-p270:32:32-p271:32:32-p272:64:64-i64:64-i128:128-f80:128-n8:16:32:64-S128"
target triple = "x86_64-pc-linux-gnu"

%struct.mbedtls_cipher_info_t = type { i32, i32, i32, ptr, i32, i32, i32, ptr }
%struct.mbedtls_cipher_context_t = type { ptr, i32, i32, [16 x i8], i64, [16 x i8], i64, ptr }

; Function Attrs: mustprogress uwtable
define internal noundef i32 @_ZL27mbedtls_cipher_aead_decryptP24mbedtls_cipher_context_tPKhmS2_mS2_mPhPmS2_m(ptr noundef %0, ptr noundef %1, i64 noundef %2, ptr noundef %3, i64 noundef %4, ptr noundef %5, i64 noundef %6, ptr noundef %7, ptr noundef %8, ptr noundef %9, i64 noundef %10) #4 {
  %12 = alloca i32, align 4
  %13 = alloca ptr, align 8
  %14 = alloca ptr, align 8
  %15 = alloca i64, align 8
  %16 = alloca ptr, align 8
  %17 = alloca i64, align 8
  %18 = alloca ptr, align 8
  %19 = alloca i64, align 8
  %20 = alloca ptr, align 8
  %21 = alloca ptr, align 8
  %22 = alloca ptr, align 8
  %23 = alloca i64, align 8
  %24 = alloca i32, align 4
  store ptr %0, ptr %13, align 8, !tbaa !36
  store ptr %1, ptr %14, align 8, !tbaa !20
  store i64 %2, ptr %15, align 8, !tbaa !52
  store ptr %3, ptr %16, align 8, !tbaa !20
  store i64 %4, ptr %17, align 8, !tbaa !52
  store ptr %5, ptr %18, align 8, !tbaa !20
  store i64 %6, ptr %19, align 8, !tbaa !52
  store ptr %7, ptr %20, align 8, !tbaa !20
  store ptr %8, ptr %21, align 8, !tbaa !56
  store ptr %9, ptr %22, align 8, !tbaa !20
  store i64 %10, ptr %23, align 8, !tbaa !52
  %25 = load ptr, ptr %13, align 8, !tbaa !36
  %26 = getelementptr inbounds nuw %struct.mbedtls_cipher_context_t, ptr %25, i32 0, i32 0
  %27 = load ptr, ptr %26, align 8, !tbaa !42
  %28 = getelementptr inbounds nuw %struct.mbedtls_cipher_info_t, ptr %27, i32 0, i32 1
  %29 = load i32, ptr %28, align 4, !tbaa !34
  %30 = icmp eq i32 6, %29
  br i1 %30, label %31, label %52

31:                                               ; preds = %11
  call void @llvm.lifetime.start.p0(i64 4, ptr %24) #8
  store i32 -110, ptr %24, align 4, !tbaa !3
  %32 = load i64, ptr %19, align 8, !tbaa !52
  %33 = load ptr, ptr %21, align 8, !tbaa !56
  store i64 %32, ptr %33, align 8, !tbaa !52
  %34 = load ptr, ptr %13, align 8, !tbaa !36
  %35 = getelementptr inbounds nuw %struct.mbedtls_cipher_context_t, ptr %34, i32 0, i32 7
  %36 = load ptr, ptr %35, align 8, !tbaa !38
  %37 = load i64, ptr %19, align 8, !tbaa !52
  %38 = load ptr, ptr %14, align 8, !tbaa !20
  %39 = load i64, ptr %15, align 8, !tbaa !52
  %40 = load ptr, ptr %16, align 8, !tbaa !20
  %41 = load i64, ptr %17, align 8, !tbaa !52
  %42 = load ptr, ptr %22, align 8, !tbaa !20
  %43 = load i64, ptr %23, align 8, !tbaa !52
  %44 = load ptr, ptr %18, align 8, !tbaa !20
  %45 = load ptr, ptr %20, align 8, !tbaa !20
  %46 = call i32 @mbedtls_gcm_auth_decrypt(ptr noundef %36, i64 noundef %37, ptr noundef %38, i64 noundef %39, ptr noundef %40, i64 noundef %41, ptr noundef %42, i64 noundef %43, ptr noundef %44, ptr noundef %45)
  store i32 %46, ptr %24, align 4, !tbaa !3
  %47 = load i32, ptr %24, align 4, !tbaa !3
  %48 = icmp eq i32 %47, -18
  br i1 %48, label %49, label %50

49:                                               ; preds = %31
  store i32 -25344, ptr %24, align 4, !tbaa !3
  br label %50

50:                                               ; preds = %49, %31
  %51 = load i32, ptr %24, align 4, !tbaa !3
  store i32 %51, ptr %12, align 4
  call void @llvm.lifetime.end.p0(i64 4, ptr %24) #8
  br label %53

52:                                               ; preds = %11
  store i32 -24704, ptr %12, align 4
  br label %53

53:                                               ; preds = %52, %50
  %54 = load i32, ptr %12, align 4
  ret i32 %54
}

; Function Attrs: mustprogress uwtable
define hidden i32 @mbedtls_cipher_auth_decrypt_ext(ptr noundef %0, ptr noundef %1, i64 noundef %2, ptr noundef %3, i64 noundef %4, ptr noundef %5, i64 noundef %6, ptr noundef %7, i64 noundef %8, ptr noundef %9, i64 noundef %10) #4 {
  %12 = alloca i32, align 4
  %13 = alloca ptr, align 8
  %14 = alloca ptr, align 8
  %15 = alloca i64, align 8
  %16 = alloca ptr, align 8
  %17 = alloca i64, align 8
  %18 = alloca ptr, align 8
  %19 = alloca i64, align 8
  %20 = alloca ptr, align 8
  %21 = alloca i64, align 8
  %22 = alloca ptr, align 8
  %23 = alloca i64, align 8
  store ptr %0, ptr %13, align 8, !tbaa !36
  store ptr %1, ptr %14, align 8, !tbaa !20
  store i64 %2, ptr %15, align 8, !tbaa !52
  store ptr %3, ptr %16, align 8, !tbaa !20
  store i64 %4, ptr %17, align 8, !tbaa !52
  store ptr %5, ptr %18, align 8, !tbaa !20
  store i64 %6, ptr %19, align 8, !tbaa !52
  store ptr %7, ptr %20, align 8, !tbaa !20
  store i64 %8, ptr %21, align 8, !tbaa !52
  store ptr %9, ptr %22, align 8, !tbaa !56
  store i64 %10, ptr %23, align 8, !tbaa !52
  br label %24

24:                                               ; preds = %11
  br label %25

25:                                               ; preds = %24
  br label %26

26:                                               ; preds = %25
  br label %27

27:                                               ; preds = %26
  br label %28

28:                                               ; preds = %27
  br label %29

29:                                               ; preds = %28
  br label %30

30:                                               ; preds = %29
  br label %31

31:                                               ; preds = %30
  br label %32

32:                                               ; preds = %31
  br label %33

33:                                               ; preds = %32
  br label %34

34:                                               ; preds = %33
  br label %35

35:                                               ; preds = %34
  %36 = load i64, ptr %19, align 8, !tbaa !52
  %37 = load i64, ptr %23, align 8, !tbaa !52
  %38 = icmp ult i64 %36, %37
  br i1 %38, label %45, label %39

39:                                               ; preds = %35
  %40 = load i64, ptr %21, align 8, !tbaa !52
  %41 = load i64, ptr %19, align 8, !tbaa !52
  %42 = load i64, ptr %23, align 8, !tbaa !52
  %43 = sub i64 %41, %42
  %44 = icmp ult i64 %40, %43
  br i1 %44, label %45, label %46

45:                                               ; preds = %39, %35
  store i32 -24832, ptr %12, align 4
  br label %66

46:                                               ; preds = %39
  %47 = load ptr, ptr %13, align 8, !tbaa !36
  %48 = load ptr, ptr %14, align 8, !tbaa !20
  %49 = load i64, ptr %15, align 8, !tbaa !52
  %50 = load ptr, ptr %16, align 8, !tbaa !20
  %51 = load i64, ptr %17, align 8, !tbaa !52
  %52 = load ptr, ptr %18, align 8, !tbaa !20
  %53 = load i64, ptr %19, align 8, !tbaa !52
  %54 = load i64, ptr %23, align 8, !tbaa !52
  %55 = sub i64 %53, %54
  %56 = load ptr, ptr %20, align 8, !tbaa !20
  %57 = load ptr, ptr %22, align 8, !tbaa !56
  %58 = load ptr, ptr %18, align 8, !tbaa !20
  %59 = load i64, ptr %19, align 8, !tbaa !52
  %60 = getelementptr inbounds nuw i8, ptr %58, i64 %59
  %61 = load i64, ptr %23, align 8, !tbaa !52
  %62 = sub i64 0, %61
  %63 = getelementptr inbounds i8, ptr %60, i64 %62
  %64 = load i64, ptr %23, align 8, !tbaa !52
  %65 = call noundef i32 @_ZL27mbedtls_cipher_aead_decryptP24mbedtls_cipher_context_tPKhmS2_mS2_mPhPmS2_m(ptr noundef %47, ptr noundef %48, i64 noundef %49, ptr noundef %50, i64 noundef %51, ptr noundef %52, i64 noundef %55, ptr noundef %56, ptr noundef %57, ptr noundef %63, i64 noundef %64)
  store i32 %65, ptr %12, align 4
  br label %66

66:                                               ; preds = %46, %45
  %67 = load i32, ptr %12, align 4
  ret i32 %67
}