; Function Attrs: mustprogress uwtable
define hidden i32 @mbedtls_cipher_auth_decrypt_ext(ptr noundef readonly captures(none) %0, ptr noundef %1, i64 noundef %2, ptr noundef %3, i64 noundef %4, ptr noundef %5, i64 noundef %6, ptr noundef %7, i64 noundef %8, ptr noundef writeonly captures(none) %9, i64 noundef %10) local_unnamed_addr #8 {
  %12 = icmp ult i64 %6, %10
  br i1 %12, label %_ZL27mbedtls_cipher_aead_decryptP24mbedtls_cipher_context_tPKhmS2_mS2_mPhPmS2_m.exit, label %13

13:                                               ; preds = %11
  %14 = sub nuw i64 %6, %10
  %15 = icmp ult i64 %8, %14
  br i1 %15, label %_ZL27mbedtls_cipher_aead_decryptP24mbedtls_cipher_context_tPKhmS2_mS2_mPhPmS2_m.exit, label %16

16:                                               ; preds = %13
  %17 = load ptr, ptr %0, align 8, !tbaa !33
  %18 = getelementptr inbounds nuw i8, ptr %17, i64 4
  %19 = load i32, ptr %18, align 4, !tbaa !27
  %20 = icmp eq i32 %19, 6
  br i1 %20, label %21, label %_ZL27mbedtls_cipher_aead_decryptP24mbedtls_cipher_context_tPKhmS2_mS2_mPhPmS2_m.exit

21:                                               ; preds = %16
  %22 = getelementptr inbounds nuw i8, ptr %5, i64 %6
  %23 = sub i64 0, %10
  %24 = getelementptr inbounds i8, ptr %22, i64 %23
  store i64 %14, ptr %9, align 8, !tbaa !43
  %25 = getelementptr inbounds nuw i8, ptr %0, i64 64
  %26 = load ptr, ptr %25, align 8, !tbaa !29
  %27 = tail call i32 @mbedtls_gcm_auth_decrypt(ptr noundef %26, i64 noundef %14, ptr noundef %1, i64 noundef %2, ptr noundef %3, i64 noundef %4, ptr noundef %24, i64 noundef %10, ptr noundef %5, ptr noundef %7)
  %28 = icmp eq i32 %27, -18
  %spec.store.select.i = select i1 %28, i32 -25344, i32 %27
  br label %_ZL27mbedtls_cipher_aead_decryptP24mbedtls_cipher_context_tPKhmS2_mS2_mPhPmS2_m.exit

_ZL27mbedtls_cipher_aead_decryptP24mbedtls_cipher_context_tPKhmS2_mS2_mPhPmS2_m.exit: ; preds = %21, %16, %11, %13
  %.0 = phi i32 [ -24832, %13 ], [ -24832, %11 ], [ %spec.store.select.i, %21 ], [ -24704, %16 ]
  ret i32 %.0
}